; Function Attrs: mustprogress nofree norecurse nosync nounwind willreturn memory(readwrite, inaccessiblemem: none) uwtable
define hidden void @_ZN7OopFlow5cloneEPS_i(ptr nocapture noundef nonnull align 8 dereferenceable(40) %0, ptr nocapture noundef readonly %1, i32 noundef %2) local_unnamed_addr #3 align 2 {
  %4 = getelementptr inbounds i8, ptr %1, i64 16
  %5 = load ptr, ptr %4, align 8
  %6 = getelementptr inbounds i8, ptr %0, i64 16
  store ptr %5, ptr %6, align 8
  %7 = load ptr, ptr %0, align 8
  %8 = load ptr, ptr %1, align 8
  %9 = sext i32 %2 to i64
  %10 = shl nsw i64 %9, 1
  tail call void @llvm.memcpy.p0.p0.i64(ptr align 2 %7, ptr align 2 %8, i64 %10, i1 false)
  %11 = getelementptr inbounds i8, ptr %0, i64 8
  %12 = load ptr, ptr %11, align 8
  %13 = getelementptr inbounds i8, ptr %1, i64 8
  %14 = load ptr, ptr %13, align 8
  %15 = shl nsw i64 %9, 3
  tail call void @llvm.memcpy.p0.p0.i64(ptr align 8 %12, ptr align 8 %14, i64 %15, i1 false)
  ret void
}